target datalayout = "e-m:e-p270:32:32-p271:32:32-p272:64:64-i64:64-i128:128-f80:128-n8:16:32:64-S128"
target triple = "x86_64-pc-linux-gnu"

%struct.png_struct_def = type { [1 x %struct.__jmp_buf_tag], ptr, ptr, i64, ptr, ptr, ptr, ptr, ptr, ptr, ptr, ptr, i8, i8, i32, i32, i32, i32, %struct.z_stream_s, i32, i32, i32, i32, i64, i32, i32, i32, ptr, ptr, i64, i32, i32, ptr, i16, i32, i16, i8, i8, i8, i8, i8, i8, i8, i8, i8, i8, i8, i8, i8, i8, i16, i8, i32, %struct.png_color_16_struct, %struct.png_color_16_struct, i32, i32, ptr, ptr, ptr, ptr, ptr, ptr, %struct.png_color_8_struct, %struct.png_color_8_struct, ptr, %struct.png_color_16_struct, ptr, ptr, ptr, ptr, ptr, ptr, ptr, ptr, ptr, i32, i32, i64, i64, i64, i64, i32, i32, ptr, ptr, [29 x i8], i32, ptr, ptr, i32, i32, ptr, i8, i8, i16, i16, ptr, i32, i8, ptr, ptr, ptr, ptr, ptr, ptr, ptr, i8, i32, i32, i32, i64, %struct.png_unknown_chunk_t, i64, ptr, i64, i32, i32, ptr, [4 x ptr], %struct.png_colorspace }
%struct.__jmp_buf_tag = type { [8 x i64], i32, %struct.__sigset_t }
%struct.__sigset_t = type { [16 x i64] }
%struct.z_stream_s = type { ptr, i32, i64, ptr, i32, i64, ptr, ptr, ptr, ptr, ptr, i32, i64, i64 }
%struct.png_color_8_struct = type { i8, i8, i8, i8, i8 }
%struct.png_color_16_struct = type { i8, i16, i16, i16, i16 }
%struct.png_unknown_chunk_t = type { [5 x i8], ptr, i64, i8 }
%struct.png_colorspace = type { i32, %struct.png_xy, %struct.png_XYZ, i16, i16 }
%struct.png_xy = type { i32, i32, i32, i32, i32, i32, i32, i32 }
%struct.png_XYZ = type { i32, i32, i32, i32, i32, i32, i32, i32, i32 }
%struct.png_row_info_struct = type { i32, i64, i8, i8, i8, i8 }

; Function Attrs: nounwind uwtable
define hidden void @png_do_check_palette_indexes(ptr noalias noundef %0, ptr noundef %1) #0 {
  %3 = alloca ptr, align 8
  %4 = alloca ptr, align 8
  %5 = alloca i32, align 4
  %6 = alloca ptr, align 8
  %7 = alloca i32, align 4
  %8 = alloca i32, align 4
  store ptr %0, ptr %3, align 8
  store ptr %1, ptr %4, align 8
  %9 = load ptr, ptr %3, align 8
  %10 = getelementptr inbounds %struct.png_struct_def, ptr %9, i32 0, i32 33
  %11 = load i16, ptr %10, align 8
  %12 = zext i16 %11 to i32
  %13 = load ptr, ptr %4, align 8
  %14 = getelementptr inbounds %struct.png_row_info_struct, ptr %13, i32 0, i32 3
  %15 = load i8, ptr %14, align 1
  %16 = zext i8 %15 to i32
  %17 = shl i32 1, %16
  %18 = icmp slt i32 %12, %17
  br i1 %18, label %19, label %223

19:                                               ; preds = %2
  %20 = load ptr, ptr %3, align 8
  %21 = getelementptr inbounds %struct.png_struct_def, ptr %20, i32 0, i32 33
  %22 = load i16, ptr %21, align 8
  %23 = zext i16 %22 to i32
  %24 = icmp sgt i32 %23, 0
  br i1 %24, label %25, label %223

25:                                               ; preds = %19
  %26 = load ptr, ptr %4, align 8
  %27 = getelementptr inbounds %struct.png_row_info_struct, ptr %26, i32 0, i32 5
  %28 = load i8, ptr %27, align 1
  %29 = zext i8 %28 to i32
  %30 = load ptr, ptr %4, align 8
  %31 = getelementptr inbounds %struct.png_row_info_struct, ptr %30, i32 0, i32 0
  %32 = load i32, ptr %31, align 8
  %33 = urem i32 %32, 8
  %34 = mul i32 %29, %33
  %35 = urem i32 %34, 8
  %36 = sub i32 8, %35
  %37 = urem i32 %36, 8
  store i32 %37, ptr %5, align 4
  %38 = load ptr, ptr %3, align 8
  %39 = getelementptr inbounds %struct.png_struct_def, ptr %38, i32 0, i32 28
  %40 = load ptr, ptr %39, align 8
  %41 = load ptr, ptr %4, align 8
  %42 = getelementptr inbounds %struct.png_row_info_struct, ptr %41, i32 0, i32 1
  %43 = load i64, ptr %42, align 8
  %44 = getelementptr inbounds i8, ptr %40, i64 %43
  store ptr %44, ptr %6, align 8
  %45 = load ptr, ptr %4, align 8
  %46 = getelementptr inbounds %struct.png_row_info_struct, ptr %45, i32 0, i32 3
  %47 = load i8, ptr %46, align 1
  %48 = zext i8 %47 to i32
  switch i32 %48, label %221 [
    i32 1, label %49
    i32 2, label %71
    i32 4, label %150
    i32 8, label %195
  ]

49:                                               ; preds = %25
  br label %50

50:                                               ; preds = %67, %49
  %51 = load ptr, ptr %6, align 8
  %52 = load ptr, ptr %3, align 8
  %53 = getelementptr inbounds %struct.png_struct_def, ptr %52, i32 0, i32 28
  %54 = load ptr, ptr %53, align 8
  %55 = icmp ugt ptr %51, %54
  br i1 %55, label %56, label %70

56:                                               ; preds = %50
  %57 = load ptr, ptr %6, align 8
  %58 = load i8, ptr %57, align 1
  %59 = zext i8 %58 to i32
  %60 = load i32, ptr %5, align 4
  %61 = ashr i32 %59, %60
  %62 = icmp ne i32 %61, 0
  br i1 %62, label %63, label %66

63:                                               ; preds = %56
  %64 = load ptr, ptr %3, align 8
  %65 = getelementptr inbounds %struct.png_struct_def, ptr %64, i32 0, i32 34
  store i32 1, ptr %65, align 4
  br label %66

66:                                               ; preds = %63, %56
  store i32 0, ptr %5, align 4
  br label %67

67:                                               ; preds = %66
  %68 = load ptr, ptr %6, align 8
  %69 = getelementptr inbounds i8, ptr %68, i32 -1
  store ptr %69, ptr %6, align 8
  br label %50, !llvm.loop !20

70:                                               ; preds = %50
  br label %222

71:                                               ; preds = %25
  br label %72

72:                                               ; preds = %146, %71
  %73 = load ptr, ptr %6, align 8
  %74 = load ptr, ptr %3, align 8
  %75 = getelementptr inbounds %struct.png_struct_def, ptr %74, i32 0, i32 28
  %76 = load ptr, ptr %75, align 8
  %77 = icmp ugt ptr %73, %76
  br i1 %77, label %78, label %149

78:                                               ; preds = %72
  %79 = load ptr, ptr %6, align 8
  %80 = load i8, ptr %79, align 1
  %81 = zext i8 %80 to i32
  %82 = load i32, ptr %5, align 4
  %83 = ashr i32 %81, %82
  %84 = and i32 %83, 3
  store i32 %84, ptr %7, align 4
  %85 = load i32, ptr %7, align 4
  %86 = load ptr, ptr %3, align 8
  %87 = getelementptr inbounds %struct.png_struct_def, ptr %86, i32 0, i32 34
  %88 = load i32, ptr %87, align 4
  %89 = icmp sgt i32 %85, %88
  br i1 %89, label %90, label %94

90:                                               ; preds = %78
  %91 = load i32, ptr %7, align 4
  %92 = load ptr, ptr %3, align 8
  %93 = getelementptr inbounds %struct.png_struct_def, ptr %92, i32 0, i32 34
  store i32 %91, ptr %93, align 4
  br label %94

94:                                               ; preds = %90, %78
  %95 = load ptr, ptr %6, align 8
  %96 = load i8, ptr %95, align 1
  %97 = zext i8 %96 to i32
  %98 = load i32, ptr %5, align 4
  %99 = ashr i32 %97, %98
  %100 = ashr i32 %99, 2
  %101 = and i32 %100, 3
  store i32 %101, ptr %7, align 4
  %102 = load i32, ptr %7, align 4
  %103 = load ptr, ptr %3, align 8
  %104 = getelementptr inbounds %struct.png_struct_def, ptr %103, i32 0, i32 34
  %105 = load i32, ptr %104, align 4
  %106 = icmp sgt i32 %102, %105
  br i1 %106, label %107, label %111

107:                                              ; preds = %94
  %108 = load i32, ptr %7, align 4
  %109 = load ptr, ptr %3, align 8
  %110 = getelementptr inbounds %struct.png_struct_def, ptr %109, i32 0, i32 34
  store i32 %108, ptr %110, align 4
  br label %111

111:                                              ; preds = %107, %94
  %112 = load ptr, ptr %6, align 8
  %113 = load i8, ptr %112, align 1
  %114 = zext i8 %113 to i32
  %115 = load i32, ptr %5, align 4
  %116 = ashr i32 %114, %115
  %117 = ashr i32 %116, 4
  %118 = and i32 %117, 3
  store i32 %118, ptr %7, align 4
  %119 = load i32, ptr %7, align 4
  %120 = load ptr, ptr %3, align 8
  %121 = getelementptr inbounds %struct.png_struct_def, ptr %120, i32 0, i32 34
  %122 = load i32, ptr %121, align 4
  %123 = icmp sgt i32 %119, %122
  br i1 %123, label %124, label %128

124:                                              ; preds = %111
  %125 = load i32, ptr %7, align 4
  %126 = load ptr, ptr %3, align 8
  %127 = getelementptr inbounds %struct.png_struct_def, ptr %126, i32 0, i32 34
  store i32 %125, ptr %127, align 4
  br label %128

128:                                              ; preds = %124, %111
  %129 = load ptr, ptr %6, align 8
  %130 = load i8, ptr %129, align 1
  %131 = zext i8 %130 to i32
  %132 = load i32, ptr %5, align 4
  %133 = ashr i32 %131, %132
  %134 = ashr i32 %133, 6
  %135 = and i32 %134, 3
  store i32 %135, ptr %7, align 4
  %136 = load i32, ptr %7, align 4
  %137 = load ptr, ptr %3, align 8
  %138 = getelementptr inbounds %struct.png_struct_def, ptr %137, i32 0, i32 34
  %139 = load i32, ptr %138, align 4
  %140 = icmp sgt i32 %136, %139
  br i1 %140, label %141, label %145

141:                                              ; preds = %128
  %142 = load i32, ptr %7, align 4
  %143 = load ptr, ptr %3, align 8
  %144 = getelementptr inbounds %struct.png_struct_def, ptr %143, i32 0, i32 34
  store i32 %142, ptr %144, align 4
  br label %145

145:                                              ; preds = %141, %128
  store i32 0, ptr %5, align 4
  br label %146

146:                                              ; preds = %145
  %147 = load ptr, ptr %6, align 8
  %148 = getelementptr inbounds i8, ptr %147, i32 -1
  store ptr %148, ptr %6, align 8
  br label %72, !llvm.loop !21

149:                                              ; preds = %72
  br label %222

150:                                              ; preds = %25
  br label %151

151:                                              ; preds = %191, %150
  %152 = load ptr, ptr %6, align 8
  %153 = load ptr, ptr %3, align 8
  %154 = getelementptr inbounds %struct.png_struct_def, ptr %153, i32 0, i32 28
  %155 = load ptr, ptr %154, align 8
  %156 = icmp ugt ptr %152, %155
  br i1 %156, label %157, label %194

157:                                              ; preds = %151
  %158 = load ptr, ptr %6, align 8
  %159 = load i8, ptr %158, align 1
  %160 = zext i8 %159 to i32
  %161 = load i32, ptr %5, align 4
  %162 = ashr i32 %160, %161
  %163 = and i32 %162, 15
  store i32 %163, ptr %8, align 4
  %164 = load i32, ptr %8, align 4
  %165 = load ptr, ptr %3, align 8
  %166 = getelementptr inbounds %struct.png_struct_def, ptr %165, i32 0, i32 34
  %167 = load i32, ptr %166, align 4
  %168 = icmp sgt i32 %164, %167
  br i1 %168, label %169, label %173

169:                                              ; preds = %157
  %170 = load i32, ptr %8, align 4
  %171 = load ptr, ptr %3, align 8
  %172 = getelementptr inbounds %struct.png_struct_def, ptr %171, i32 0, i32 34
  store i32 %170, ptr %172, align 4
  br label %173

173:                                              ; preds = %169, %157
  %174 = load ptr, ptr %6, align 8
  %175 = load i8, ptr %174, align 1
  %176 = zext i8 %175 to i32
  %177 = load i32, ptr %5, align 4
  %178 = ashr i32 %176, %177
  %179 = ashr i32 %178, 4
  %180 = and i32 %179, 15
  store i32 %180, ptr %8, align 4
  %181 = load i32, ptr %8, align 4
  %182 = load ptr, ptr %3, align 8
  %183 = getelementptr inbounds %struct.png_struct_def, ptr %182, i32 0, i32 34
  %184 = load i32, ptr %183, align 4
  %185 = icmp sgt i32 %181, %184
  br i1 %185, label %186, label %190

186:                                              ; preds = %173
  %187 = load i32, ptr %8, align 4
  %188 = load ptr, ptr %3, align 8
  %189 = getelementptr inbounds %struct.png_struct_def, ptr %188, i32 0, i32 34
  store i32 %187, ptr %189, align 4
  br label %190

190:                                              ; preds = %186, %173
  store i32 0, ptr %5, align 4
  br label %191

191:                                              ; preds = %190
  %192 = load ptr, ptr %6, align 8
  %193 = getelementptr inbounds i8, ptr %192, i32 -1
  store ptr %193, ptr %6, align 8
  br label %151, !llvm.loop !22

194:                                              ; preds = %151
  br label %222

195:                                              ; preds = %25
  br label %196

196:                                              ; preds = %217, %195
  %197 = load ptr, ptr %6, align 8
  %198 = load ptr, ptr %3, align 8
  %199 = getelementptr inbounds %struct.png_struct_def, ptr %198, i32 0, i32 28
  %200 = load ptr, ptr %199, align 8
  %201 = icmp ugt ptr %197, %200
  br i1 %201, label %202, label %220

202:                                              ; preds = %196
  %203 = load ptr, ptr %6, align 8
  %204 = load i8, ptr %203, align 1
  %205 = zext i8 %204 to i32
  %206 = load ptr, ptr %3, align 8
  %207 = getelementptr inbounds %struct.png_struct_def, ptr %206, i32 0, i32 34
  %208 = load i32, ptr %207, align 4
  %209 = icmp sgt i32 %205, %208
  br i1 %209, label %210, label %216

210:                                              ; preds = %202
  %211 = load ptr, ptr %6, align 8
  %212 = load i8, ptr %211, align 1
  %213 = zext i8 %212 to i32
  %214 = load ptr, ptr %3, align 8
  %215 = getelementptr inbounds %struct.png_struct_def, ptr %214, i32 0, i32 34
  store i32 %213, ptr %215, align 4
  br label %216

216:                                              ; preds = %210, %202
  br label %217

217:                                              ; preds = %216
  %218 = load ptr, ptr %6, align 8
  %219 = getelementptr inbounds i8, ptr %218, i32 -1
  store ptr %219, ptr %6, align 8
  br label %196, !llvm.loop !23

220:                                              ; preds = %196
  br label %222

221:                                              ; preds = %25
  br label %222

222:                                              ; preds = %221, %220, %194, %149, %70
  br label %223

223:                                              ; preds = %222, %19, %2
  ret void
}