; Function Attrs: nofree norecurse nosync nounwind memory(read, argmem: readwrite, inaccessiblemem: none) uwtable
define hidden void @png_do_check_palette_indexes(ptr noalias nocapture noundef %0, ptr nocapture noundef readonly %1) local_unnamed_addr #5 {
  %3 = getelementptr inbounds i8, ptr %0, i64 504
  %4 = load i16, ptr %3, align 8
  %5 = zext i16 %4 to i32
  %6 = getelementptr inbounds i8, ptr %1, i64 17
  %7 = load i8, ptr %6, align 1
  %8 = zext nneg i8 %7 to i32
  %9 = shl nuw i32 1, %8
  %10 = icmp sle i32 %9, %5
  %.not = icmp eq i16 %4, 0
  %or.cond = or i1 %.not, %10
  br i1 %or.cond, label %.loopexit, label %11

11:                                               ; preds = %2
  %12 = getelementptr inbounds i8, ptr %1, i64 19
  %13 = load i8, ptr %12, align 1
  %14 = zext i8 %13 to i32
  %15 = load i32, ptr %1, align 8
  %16 = mul i32 %15, %14
  %17 = sub i32 0, %16
  %18 = and i32 %17, 7
  %19 = getelementptr inbounds i8, ptr %0, i64 472
  %20 = load ptr, ptr %19, align 8
  %21 = getelementptr inbounds i8, ptr %1, i64 8
  %22 = load i64, ptr %21, align 8
  %23 = getelementptr inbounds i8, ptr %20, i64 %22
  switch i8 %7, label %.loopexit [
    i8 1, label %.preheader
    i8 2, label %.preheader74
    i8 4, label %.preheader76
    i8 8, label %.preheader78
  ]

.preheader78:                                     ; preds = %11
  %24 = icmp sgt i64 %22, 0
  br i1 %24, label %.lr.ph, label %.loopexit

.lr.ph:                                           ; preds = %.preheader78
  %25 = getelementptr inbounds i8, ptr %0, i64 508
  %.promoted = load i32, ptr %25, align 4
  br label %72

.preheader76:                                     ; preds = %11
  %26 = icmp sgt i64 %22, 0
  br i1 %26, label %.lr.ph83, label %.loopexit

.lr.ph83:                                         ; preds = %.preheader76
  %27 = getelementptr inbounds i8, ptr %0, i64 508
  %.promoted84 = load i32, ptr %27, align 4
  br label %58

.preheader74:                                     ; preds = %11
  %28 = icmp sgt i64 %22, 0
  br i1 %28, label %.lr.ph87, label %.loopexit

.lr.ph87:                                         ; preds = %.preheader74
  %29 = getelementptr inbounds i8, ptr %0, i64 508
  %.promoted88 = load i32, ptr %29, align 4
  br label %40

.preheader:                                       ; preds = %11
  %30 = icmp sgt i64 %22, 0
  br i1 %30, label %.lr.ph91, label %.loopexit

.lr.ph91:                                         ; preds = %.preheader
  %31 = getelementptr inbounds i8, ptr %0, i64 508
  br label %32

32:                                               ; preds = %.lr.ph91, %37
  %.090 = phi ptr [ %23, %.lr.ph91 ], [ %38, %37 ]
  %.06289 = phi i32 [ %18, %.lr.ph91 ], [ 0, %37 ]
  %33 = load i8, ptr %.090, align 1
  %34 = zext i8 %33 to i32
  %35 = lshr i32 %34, %.06289
  %.not73 = icmp eq i32 %35, 0
  br i1 %.not73, label %37, label %36

36:                                               ; preds = %32
  store i32 1, ptr %31, align 4
  br label %37

37:                                               ; preds = %36, %32
  %38 = getelementptr inbounds i8, ptr %.090, i64 -1
  %39 = icmp ugt ptr %38, %20
  br i1 %39, label %32, label %.loopexit, !llvm.loop !23

40:                                               ; preds = %.lr.ph87, %55
  %41 = phi i32 [ %.promoted88, %.lr.ph87 ], [ %spec.select92, %55 ]
  %.186 = phi ptr [ %23, %.lr.ph87 ], [ %56, %55 ]
  %.16385 = phi i32 [ %18, %.lr.ph87 ], [ 0, %55 ]
  %42 = load i8, ptr %.186, align 1
  %43 = zext i8 %42 to i32
  %44 = lshr i32 %43, %.16385
  %45 = and i32 %44, 3
  %.not95 = icmp sgt i32 %45, %41
  %46 = tail call i32 @llvm.smax.i32(i32 %45, i32 %41)
  %47 = lshr i32 %44, 2
  %48 = and i32 %47, 3
  %.not96 = icmp ugt i32 %48, %46
  %49 = tail call i32 @llvm.umax.i32(i32 %48, i32 %46)
  %.not97.not.not100.not102 = or i1 %.not95, %.not96
  %50 = lshr i32 %44, 4
  %51 = and i32 %50, 3
  %.not98 = icmp ugt i32 %51, %49
  %spec.select = tail call i32 @llvm.umax.i32(i32 %51, i32 %49)
  %.not99.not = or i1 %.not97.not.not100.not102, %.not98
  %52 = lshr i32 %44, 6
  %.not101 = icmp ugt i32 %52, %spec.select
  %spec.select92 = tail call i32 @llvm.umax.i32(i32 %52, i32 %spec.select)
  %53 = or i1 %.not99.not, %.not101
  br i1 %53, label %54, label %55

54:                                               ; preds = %40
  store i32 %spec.select92, ptr %29, align 4
  br label %55

55:                                               ; preds = %40, %54
  %56 = getelementptr inbounds i8, ptr %.186, i64 -1
  %57 = icmp ugt ptr %56, %20
  br i1 %57, label %40, label %.loopexit, !llvm.loop !24

58:                                               ; preds = %.lr.ph83, %69
  %59 = phi i32 [ %.promoted84, %.lr.ph83 ], [ %66, %69 ]
  %.282 = phi ptr [ %23, %.lr.ph83 ], [ %70, %69 ]
  %.26481 = phi i32 [ %18, %.lr.ph83 ], [ 0, %69 ]
  %60 = load i8, ptr %.282, align 1
  %61 = zext i8 %60 to i32
  %62 = lshr i32 %61, %.26481
  %63 = and i32 %62, 15
  %.not93 = icmp sgt i32 %63, %59
  %64 = tail call i32 @llvm.smax.i32(i32 %63, i32 %59)
  %65 = lshr i32 %62, 4
  %.not94 = icmp ugt i32 %65, %64
  %66 = tail call i32 @llvm.umax.i32(i32 %65, i32 %64)
  %67 = or i1 %.not93, %.not94
  br i1 %67, label %68, label %69

68:                                               ; preds = %58
  store i32 %66, ptr %27, align 4
  br label %69

69:                                               ; preds = %58, %68
  %70 = getelementptr inbounds i8, ptr %.282, i64 -1
  %71 = icmp ugt ptr %70, %20
  br i1 %71, label %58, label %.loopexit, !llvm.loop !25

72:                                               ; preds = %.lr.ph, %78
  %73 = phi i32 [ %.promoted, %.lr.ph ], [ %79, %78 ]
  %.380 = phi ptr [ %23, %.lr.ph ], [ %80, %78 ]
  %74 = load i8, ptr %.380, align 1
  %75 = zext i8 %74 to i32
  %76 = icmp slt i32 %73, %75
  br i1 %76, label %77, label %78

77:                                               ; preds = %72
  store i32 %75, ptr %25, align 4
  br label %78

78:                                               ; preds = %72, %77
  %79 = phi i32 [ %73, %72 ], [ %75, %77 ]
  %80 = getelementptr inbounds i8, ptr %.380, i64 -1
  %81 = icmp ugt ptr %80, %20
  br i1 %81, label %72, label %.loopexit, !llvm.loop !26

.loopexit:                                        ; preds = %78, %69, %55, %37, %.preheader78, %.preheader76, %.preheader74, %.preheader, %11, %2
  ret void
}